; Function Attrs: mustprogress uwtable
define hidden void @_ZN6Assimp3FBX4Node20DumpPropertiesBinaryERNS_12StreamWriterILb0ELb0EEE(ptr noundef nonnull readonly align 8 captures(none) dereferenceable(112) %0, ptr noundef nonnull align 8 dereferenceable(56) %1) local_unnamed_addr #3 align 2 {
  %3 = getelementptr inbounds nuw i8, ptr %0, i64 32
  %4 = load ptr, ptr %3, align 8
  %5 = getelementptr inbounds nuw i8, ptr %0, i64 40
  %6 = load ptr, ptr %5, align 8
  %.not8 = icmp eq ptr %4, %6
  br i1 %.not8, label %._crit_edge, label %.lr.ph

._crit_edge:                                      ; preds = %.lr.ph, %2
  ret void

.lr.ph:                                           ; preds = %2, %.lr.ph
  %.sroa.05.09 = phi ptr [ %7, %.lr.ph ], [ %4, %2 ]
  tail call void @_ZN6Assimp3FBX17FBXExportProperty10DumpBinaryERNS_12StreamWriterILb0ELb0EEE(ptr noundef nonnull align 8 dereferenceable(32) %.sroa.05.09, ptr noundef nonnull align 8 dereferenceable(56) %1)
  %7 = getelementptr inbounds nuw i8, ptr %.sroa.05.09, i64 32
  %.not = icmp eq ptr %7, %6
  br i1 %.not, label %._crit_edge, label %.lr.ph
}